; Function Attrs: mustprogress nofree norecurse nosync nounwind willreturn memory(argmem: write) uwtable
define range(i32 -173, 1) i32 @wc_RsaSetRNG(ptr noundef writeonly captures(address_is_null) %0, ptr noundef %1) local_unnamed_addr #7 {
  %3 = icmp eq ptr %0, null
  %4 = icmp eq ptr %1, null
  %or.cond = or i1 %3, %4
  br i1 %or.cond, label %7, label %5

5:                                                ; preds = %2
  %6 = getelementptr inbounds nuw i8, ptr %0, i64 8352
  store ptr %1, ptr %6, align 8, !tbaa !14
  br label %7

7:                                                ; preds = %2, %5
  %.0 = phi i32 [ 0, %5 ], [ -173, %2 ]
  ret i32 %.0
}